target datalayout = "e-m:e-p270:32:32-p271:32:32-p272:64:64-i64:64-i128:128-f80:128-n8:16:32:64-S128"
target triple = "x86_64-pc-linux-gnu"

%class.aiVector3t = type { float, float, float }
%struct.aiMesh = type { i32, i32, i32, ptr, ptr, ptr, ptr, [8 x ptr], [8 x ptr], [8 x i32], ptr, i32, ptr, i32, %struct.aiString, i32, ptr, i32, %struct.aiAABB, ptr }
%struct.aiString = type { i32, [1024 x i8] }
%struct.aiAABB = type { %class.aiVector3t, %class.aiVector3t }
%"struct.Assimp::MinMaxChooser" = type { i8 }

; Function Attrs: inlinehint mustprogress nounwind uwtable
define linkonce_odr noundef nonnull align 4 dereferenceable(4) ptr @_ZSt3maxIfERKT_S2_S2_(ptr noundef nonnull align 4 dereferenceable(4) %0, ptr noundef nonnull align 4 dereferenceable(4) %1) #7 comdat {
  %3 = alloca ptr, align 8
  %4 = alloca ptr, align 8
  %5 = alloca ptr, align 8
  store ptr %0, ptr %4, align 8
  store ptr %1, ptr %5, align 8
  %6 = load ptr, ptr %4, align 8
  %7 = load float, ptr %6, align 4
  %8 = load ptr, ptr %5, align 8
  %9 = load float, ptr %8, align 4
  %10 = fcmp olt float %7, %9
  br i1 %10, label %11, label %13

11:                                               ; preds = %2
  %12 = load ptr, ptr %5, align 8
  store ptr %12, ptr %3, align 8
  br label %15

13:                                               ; preds = %2
  %14 = load ptr, ptr %4, align 8
  store ptr %14, ptr %3, align 8
  br label %15

15:                                               ; preds = %13, %11
  %16 = load ptr, ptr %3, align 8
  ret ptr %16
}

; Function Attrs: inlinehint mustprogress nounwind uwtable
define linkonce_odr noundef nonnull align 4 dereferenceable(4) ptr @_ZSt3minIfERKT_S2_S2_(ptr noundef nonnull align 4 dereferenceable(4) %0, ptr noundef nonnull align 4 dereferenceable(4) %1) #7 comdat {
  %3 = alloca ptr, align 8
  %4 = alloca ptr, align 8
  %5 = alloca ptr, align 8
  store ptr %0, ptr %4, align 8
  store ptr %1, ptr %5, align 8
  %6 = load ptr, ptr %5, align 8
  %7 = load float, ptr %6, align 4
  %8 = load ptr, ptr %4, align 8
  %9 = load float, ptr %8, align 4
  %10 = fcmp olt float %7, %9
  br i1 %10, label %11, label %13

11:                                               ; preds = %2
  %12 = load ptr, ptr %5, align 8
  store ptr %12, ptr %3, align 8
  br label %15

13:                                               ; preds = %2
  %14 = load ptr, ptr %4, align 8
  store ptr %14, ptr %3, align 8
  br label %15

15:                                               ; preds = %13, %11
  %16 = load ptr, ptr %3, align 8
  ret ptr %16
}

; Function Attrs: mustprogress nounwind uwtable
define linkonce_odr hidden void @_ZN10aiVector3tIfEC2Efff(ptr noundef nonnull align 4 dereferenceable(12) %0, float noundef %1, float noundef %2, float noundef %3) unnamed_addr #2 comdat align 2 {
  %5 = alloca ptr, align 8
  %6 = alloca float, align 4
  %7 = alloca float, align 4
  %8 = alloca float, align 4
  store ptr %0, ptr %5, align 8
  store float %1, ptr %6, align 4
  store float %2, ptr %7, align 4
  store float %3, ptr %8, align 4
  %9 = load ptr, ptr %5, align 8
  %10 = getelementptr inbounds nuw %class.aiVector3t, ptr %9, i32 0, i32 0
  %11 = load float, ptr %6, align 4
  store float %11, ptr %10, align 4
  %12 = getelementptr inbounds nuw %class.aiVector3t, ptr %9, i32 0, i32 1
  %13 = load float, ptr %7, align 4
  store float %13, ptr %12, align 4
  %14 = getelementptr inbounds nuw %class.aiVector3t, ptr %9, i32 0, i32 2
  %15 = load float, ptr %8, align 4
  store float %15, ptr %14, align 4
  ret void
}

; Function Attrs: inlinehint mustprogress uwtable
define linkonce_odr hidden { <2 x float>, float } @_ZSt3maxIfE10aiVector3tIT_ERKS2_S4_(ptr noundef nonnull align 4 dereferenceable(12) %0, ptr noundef nonnull align 4 dereferenceable(12) %1) #3 comdat {
  %3 = alloca %class.aiVector3t, align 4
  %4 = alloca ptr, align 8
  %5 = alloca ptr, align 8
  %6 = alloca { <2 x float>, float }, align 8
  store ptr %0, ptr %4, align 8
  store ptr %1, ptr %5, align 8
  %7 = load ptr, ptr %4, align 8
  %8 = getelementptr inbounds nuw %class.aiVector3t, ptr %7, i32 0, i32 0
  %9 = load ptr, ptr %5, align 8
  %10 = getelementptr inbounds nuw %class.aiVector3t, ptr %9, i32 0, i32 0
  %11 = call noundef nonnull align 4 dereferenceable(4) ptr @_ZSt3maxIfERKT_S2_S2_(ptr noundef nonnull align 4 dereferenceable(4) %8, ptr noundef nonnull align 4 dereferenceable(4) %10)
  %12 = load float, ptr %11, align 4
  %13 = load ptr, ptr %4, align 8
  %14 = getelementptr inbounds nuw %class.aiVector3t, ptr %13, i32 0, i32 1
  %15 = load ptr, ptr %5, align 8
  %16 = getelementptr inbounds nuw %class.aiVector3t, ptr %15, i32 0, i32 1
  %17 = call noundef nonnull align 4 dereferenceable(4) ptr @_ZSt3maxIfERKT_S2_S2_(ptr noundef nonnull align 4 dereferenceable(4) %14, ptr noundef nonnull align 4 dereferenceable(4) %16)
  %18 = load float, ptr %17, align 4
  %19 = load ptr, ptr %4, align 8
  %20 = getelementptr inbounds nuw %class.aiVector3t, ptr %19, i32 0, i32 2
  %21 = load ptr, ptr %5, align 8
  %22 = getelementptr inbounds nuw %class.aiVector3t, ptr %21, i32 0, i32 2
  %23 = call noundef nonnull align 4 dereferenceable(4) ptr @_ZSt3maxIfERKT_S2_S2_(ptr noundef nonnull align 4 dereferenceable(4) %20, ptr noundef nonnull align 4 dereferenceable(4) %22)
  %24 = load float, ptr %23, align 4
  call void @_ZN10aiVector3tIfEC2Efff(ptr noundef nonnull align 4 dereferenceable(12) %3, float noundef %12, float noundef %18, float noundef %24)
  call void @llvm.memcpy.p0.p0.i64(ptr align 8 %6, ptr align 4 %3, i64 12, i1 false)
  %25 = load { <2 x float>, float }, ptr %6, align 8
  ret { <2 x float>, float } %25
}

; Function Attrs: inlinehint mustprogress uwtable
define linkonce_odr hidden { <2 x float>, float } @_ZSt3minIfE10aiVector3tIT_ERKS2_S4_(ptr noundef nonnull align 4 dereferenceable(12) %0, ptr noundef nonnull align 4 dereferenceable(12) %1) #3 comdat {
  %3 = alloca %class.aiVector3t, align 4
  %4 = alloca ptr, align 8
  %5 = alloca ptr, align 8
  %6 = alloca { <2 x float>, float }, align 8
  store ptr %0, ptr %4, align 8
  store ptr %1, ptr %5, align 8
  %7 = load ptr, ptr %4, align 8
  %8 = getelementptr inbounds nuw %class.aiVector3t, ptr %7, i32 0, i32 0
  %9 = load ptr, ptr %5, align 8
  %10 = getelementptr inbounds nuw %class.aiVector3t, ptr %9, i32 0, i32 0
  %11 = call noundef nonnull align 4 dereferenceable(4) ptr @_ZSt3minIfERKT_S2_S2_(ptr noundef nonnull align 4 dereferenceable(4) %8, ptr noundef nonnull align 4 dereferenceable(4) %10)
  %12 = load float, ptr %11, align 4
  %13 = load ptr, ptr %4, align 8
  %14 = getelementptr inbounds nuw %class.aiVector3t, ptr %13, i32 0, i32 1
  %15 = load ptr, ptr %5, align 8
  %16 = getelementptr inbounds nuw %class.aiVector3t, ptr %15, i32 0, i32 1
  %17 = call noundef nonnull align 4 dereferenceable(4) ptr @_ZSt3minIfERKT_S2_S2_(ptr noundef nonnull align 4 dereferenceable(4) %14, ptr noundef nonnull align 4 dereferenceable(4) %16)
  %18 = load float, ptr %17, align 4
  %19 = load ptr, ptr %4, align 8
  %20 = getelementptr inbounds nuw %class.aiVector3t, ptr %19, i32 0, i32 2
  %21 = load ptr, ptr %5, align 8
  %22 = getelementptr inbounds nuw %class.aiVector3t, ptr %21, i32 0, i32 2
  %23 = call noundef nonnull align 4 dereferenceable(4) ptr @_ZSt3minIfERKT_S2_S2_(ptr noundef nonnull align 4 dereferenceable(4) %20, ptr noundef nonnull align 4 dereferenceable(4) %22)
  %24 = load float, ptr %23, align 4
  call void @_ZN10aiVector3tIfEC2Efff(ptr noundef nonnull align 4 dereferenceable(12) %3, float noundef %12, float noundef %18, float noundef %24)
  call void @llvm.memcpy.p0.p0.i64(ptr align 8 %6, ptr align 4 %3, i64 12, i1 false)
  %25 = load { <2 x float>, float }, ptr %6, align 8
  ret { <2 x float>, float } %25
}

; Function Attrs: mustprogress uwtable
define linkonce_odr hidden void @_ZN6Assimp13MinMaxChooserI10aiVector3tIfEEclERS2_S4_(ptr noundef nonnull align 1 dereferenceable(1) %0, ptr noundef nonnull align 4 dereferenceable(12) %1, ptr noundef nonnull align 4 dereferenceable(12) %2) #0 comdat align 2 {
  %4 = alloca ptr, align 8
  %5 = alloca ptr, align 8
  %6 = alloca ptr, align 8
  %7 = alloca %class.aiVector3t, align 4
  %8 = alloca %class.aiVector3t, align 4
  store ptr %0, ptr %4, align 8
  store ptr %1, ptr %5, align 8
  store ptr %2, ptr %6, align 8
  call void @llvm.lifetime.start.p0(i64 12, ptr %7) #18
  call void @_ZN10aiVector3tIfEC2Efff(ptr noundef nonnull align 4 dereferenceable(12) %7, float noundef -1.000000e+10, float noundef -1.000000e+10, float noundef -1.000000e+10)
  %9 = load ptr, ptr %6, align 8
  call void @llvm.memcpy.p0.p0.i64(ptr align 4 %9, ptr align 4 %7, i64 12, i1 false)
  call void @llvm.lifetime.end.p0(i64 12, ptr %7) #18
  call void @llvm.lifetime.start.p0(i64 12, ptr %8) #18
  call void @_ZN10aiVector3tIfEC2Efff(ptr noundef nonnull align 4 dereferenceable(12) %8, float noundef 1.000000e+10, float noundef 1.000000e+10, float noundef 1.000000e+10)
  %10 = load ptr, ptr %5, align 8
  call void @llvm.memcpy.p0.p0.i64(ptr align 4 %10, ptr align 4 %8, i64 12, i1 false)
  call void @llvm.lifetime.end.p0(i64 12, ptr %8) #18
  ret void
}

; Function Attrs: inlinehint mustprogress uwtable
define linkonce_odr hidden { <2 x float>, float } @_ZplIfE10aiVector3tIT_ERKS2_S4_(ptr noundef nonnull align 4 dereferenceable(12) %0, ptr noundef nonnull align 4 dereferenceable(12) %1) #3 comdat {
  %3 = alloca %class.aiVector3t, align 4
  %4 = alloca ptr, align 8
  %5 = alloca ptr, align 8
  %6 = alloca { <2 x float>, float }, align 8
  store ptr %0, ptr %4, align 8
  store ptr %1, ptr %5, align 8
  %7 = load ptr, ptr %4, align 8
  %8 = getelementptr inbounds nuw %class.aiVector3t, ptr %7, i32 0, i32 0
  %9 = load float, ptr %8, align 4
  %10 = load ptr, ptr %5, align 8
  %11 = getelementptr inbounds nuw %class.aiVector3t, ptr %10, i32 0, i32 0
  %12 = load float, ptr %11, align 4
  %13 = fadd float %9, %12
  %14 = load ptr, ptr %4, align 8
  %15 = getelementptr inbounds nuw %class.aiVector3t, ptr %14, i32 0, i32 1
  %16 = load float, ptr %15, align 4
  %17 = load ptr, ptr %5, align 8
  %18 = getelementptr inbounds nuw %class.aiVector3t, ptr %17, i32 0, i32 1
  %19 = load float, ptr %18, align 4
  %20 = fadd float %16, %19
  %21 = load ptr, ptr %4, align 8
  %22 = getelementptr inbounds nuw %class.aiVector3t, ptr %21, i32 0, i32 2
  %23 = load float, ptr %22, align 4
  %24 = load ptr, ptr %5, align 8
  %25 = getelementptr inbounds nuw %class.aiVector3t, ptr %24, i32 0, i32 2
  %26 = load float, ptr %25, align 4
  %27 = fadd float %23, %26
  call void @_ZN10aiVector3tIfEC2Efff(ptr noundef nonnull align 4 dereferenceable(12) %3, float noundef %13, float noundef %20, float noundef %27)
  call void @llvm.memcpy.p0.p0.i64(ptr align 8 %6, ptr align 4 %3, i64 12, i1 false)
  %28 = load { <2 x float>, float }, ptr %6, align 8
  ret { <2 x float>, float } %28
}

; Function Attrs: inlinehint mustprogress uwtable
define linkonce_odr hidden { <2 x float>, float } @_ZmlIfE10aiVector3tIT_ERKS2_S1_(ptr noundef nonnull align 4 dereferenceable(12) %0, float noundef %1) #3 comdat {
  %3 = alloca %class.aiVector3t, align 4
  %4 = alloca ptr, align 8
  %5 = alloca float, align 4
  %6 = alloca { <2 x float>, float }, align 8
  store ptr %0, ptr %4, align 8
  store float %1, ptr %5, align 4
  %7 = load float, ptr %5, align 4
  %8 = load ptr, ptr %4, align 8
  %9 = getelementptr inbounds nuw %class.aiVector3t, ptr %8, i32 0, i32 0
  %10 = load float, ptr %9, align 4
  %11 = fmul float %7, %10
  %12 = load float, ptr %5, align 4
  %13 = load ptr, ptr %4, align 8
  %14 = getelementptr inbounds nuw %class.aiVector3t, ptr %13, i32 0, i32 1
  %15 = load float, ptr %14, align 4
  %16 = fmul float %12, %15
  %17 = load float, ptr %5, align 4
  %18 = load ptr, ptr %4, align 8
  %19 = getelementptr inbounds nuw %class.aiVector3t, ptr %18, i32 0, i32 2
  %20 = load float, ptr %19, align 4
  %21 = fmul float %17, %20
  call void @_ZN10aiVector3tIfEC2Efff(ptr noundef nonnull align 4 dereferenceable(12) %3, float noundef %11, float noundef %16, float noundef %21)
  call void @llvm.memcpy.p0.p0.i64(ptr align 8 %6, ptr align 4 %3, i64 12, i1 false)
  %22 = load { <2 x float>, float }, ptr %6, align 8
  ret { <2 x float>, float } %22
}

; Function Attrs: inlinehint mustprogress uwtable
define linkonce_odr hidden { <2 x float>, float } @_ZmiIfE10aiVector3tIT_ERKS2_S4_(ptr noundef nonnull align 4 dereferenceable(12) %0, ptr noundef nonnull align 4 dereferenceable(12) %1) #3 comdat {
  %3 = alloca %class.aiVector3t, align 4
  %4 = alloca ptr, align 8
  %5 = alloca ptr, align 8
  %6 = alloca { <2 x float>, float }, align 8
  store ptr %0, ptr %4, align 8
  store ptr %1, ptr %5, align 8
  %7 = load ptr, ptr %4, align 8
  %8 = getelementptr inbounds nuw %class.aiVector3t, ptr %7, i32 0, i32 0
  %9 = load float, ptr %8, align 4
  %10 = load ptr, ptr %5, align 8
  %11 = getelementptr inbounds nuw %class.aiVector3t, ptr %10, i32 0, i32 0
  %12 = load float, ptr %11, align 4
  %13 = fsub float %9, %12
  %14 = load ptr, ptr %4, align 8
  %15 = getelementptr inbounds nuw %class.aiVector3t, ptr %14, i32 0, i32 1
  %16 = load float, ptr %15, align 4
  %17 = load ptr, ptr %5, align 8
  %18 = getelementptr inbounds nuw %class.aiVector3t, ptr %17, i32 0, i32 1
  %19 = load float, ptr %18, align 4
  %20 = fsub float %16, %19
  %21 = load ptr, ptr %4, align 8
  %22 = getelementptr inbounds nuw %class.aiVector3t, ptr %21, i32 0, i32 2
  %23 = load float, ptr %22, align 4
  %24 = load ptr, ptr %5, align 8
  %25 = getelementptr inbounds nuw %class.aiVector3t, ptr %24, i32 0, i32 2
  %26 = load float, ptr %25, align 4
  %27 = fsub float %23, %26
  call void @_ZN10aiVector3tIfEC2Efff(ptr noundef nonnull align 4 dereferenceable(12) %3, float noundef %13, float noundef %20, float noundef %27)
  call void @llvm.memcpy.p0.p0.i64(ptr align 8 %6, ptr align 4 %3, i64 12, i1 false)
  %28 = load { <2 x float>, float }, ptr %6, align 8
  ret { <2 x float>, float } %28
}

; Function Attrs: inlinehint mustprogress uwtable
define linkonce_odr hidden void @_ZN6Assimp11ArrayBoundsI10aiVector3tIfEEEvPKT_jRS3_S6_(ptr noundef %0, i32 noundef %1, ptr noundef nonnull align 4 dereferenceable(12) %2, ptr noundef nonnull align 4 dereferenceable(12) %3) #8 comdat {
  %5 = alloca ptr, align 8
  %6 = alloca i32, align 4
  %7 = alloca ptr, align 8
  %8 = alloca ptr, align 8
  %9 = alloca %"struct.Assimp::MinMaxChooser", align 1
  %10 = alloca i32, align 4
  %11 = alloca %class.aiVector3t, align 4
  %12 = alloca { <2 x float>, float }, align 8
  %13 = alloca %class.aiVector3t, align 4
  %14 = alloca { <2 x float>, float }, align 8
  store ptr %0, ptr %5, align 8
  store i32 %1, ptr %6, align 4
  store ptr %2, ptr %7, align 8
  store ptr %3, ptr %8, align 8
  call void @llvm.lifetime.start.p0(i64 1, ptr %9) #18
  %15 = load ptr, ptr %7, align 8
  %16 = load ptr, ptr %8, align 8
  call void @_ZN6Assimp13MinMaxChooserI10aiVector3tIfEEclERS2_S4_(ptr noundef nonnull align 1 dereferenceable(1) %9, ptr noundef nonnull align 4 dereferenceable(12) %15, ptr noundef nonnull align 4 dereferenceable(12) %16)
  call void @llvm.lifetime.end.p0(i64 1, ptr %9) #18
  call void @llvm.lifetime.start.p0(i64 4, ptr %10) #18
  store i32 0, ptr %10, align 4
  br label %17

17:                                               ; preds = %37, %4
  %18 = load i32, ptr %10, align 4
  %19 = load i32, ptr %6, align 4
  %20 = icmp ult i32 %18, %19
  br i1 %20, label %22, label %21

21:                                               ; preds = %17
  call void @llvm.lifetime.end.p0(i64 4, ptr %10) #18
  br label %40

22:                                               ; preds = %17
  call void @llvm.lifetime.start.p0(i64 12, ptr %11) #18
  %23 = load ptr, ptr %5, align 8
  %24 = load i32, ptr %10, align 4
  %25 = zext i32 %24 to i64
  %26 = getelementptr inbounds nuw %class.aiVector3t, ptr %23, i64 %25
  %27 = load ptr, ptr %7, align 8
  %28 = call { <2 x float>, float } @_ZSt3minIfE10aiVector3tIT_ERKS2_S4_(ptr noundef nonnull align 4 dereferenceable(12) %26, ptr noundef nonnull align 4 dereferenceable(12) %27)
  store { <2 x float>, float } %28, ptr %12, align 8
  call void @llvm.memcpy.p0.p0.i64(ptr align 4 %11, ptr align 8 %12, i64 12, i1 false)
  %29 = load ptr, ptr %7, align 8
  call void @llvm.memcpy.p0.p0.i64(ptr align 4 %29, ptr align 4 %11, i64 12, i1 false)
  call void @llvm.lifetime.end.p0(i64 12, ptr %11) #18
  call void @llvm.lifetime.start.p0(i64 12, ptr %13) #18
  %30 = load ptr, ptr %5, align 8
  %31 = load i32, ptr %10, align 4
  %32 = zext i32 %31 to i64
  %33 = getelementptr inbounds nuw %class.aiVector3t, ptr %30, i64 %32
  %34 = load ptr, ptr %8, align 8
  %35 = call { <2 x float>, float } @_ZSt3maxIfE10aiVector3tIT_ERKS2_S4_(ptr noundef nonnull align 4 dereferenceable(12) %33, ptr noundef nonnull align 4 dereferenceable(12) %34)
  store { <2 x float>, float } %35, ptr %14, align 8
  call void @llvm.memcpy.p0.p0.i64(ptr align 4 %13, ptr align 8 %14, i64 12, i1 false)
  %36 = load ptr, ptr %8, align 8
  call void @llvm.memcpy.p0.p0.i64(ptr align 4 %36, ptr align 4 %13, i64 12, i1 false)
  call void @llvm.lifetime.end.p0(i64 12, ptr %13) #18
  br label %37

37:                                               ; preds = %22
  %38 = load i32, ptr %10, align 4
  %39 = add i32 %38, 1
  store i32 %39, ptr %10, align 4
  br label %17, !llvm.loop !8

40:                                               ; preds = %21
  ret void
}

; Function Attrs: mustprogress uwtable
define hidden void @_ZN6Assimp14FindMeshCenterEP6aiMeshR10aiVector3tIfES4_S4_(ptr noundef %0, ptr noundef nonnull align 4 dereferenceable(12) %1, ptr noundef nonnull align 4 dereferenceable(12) %2, ptr noundef nonnull align 4 dereferenceable(12) %3) #5 {
  %5 = alloca ptr, align 8
  %6 = alloca ptr, align 8
  %7 = alloca ptr, align 8
  %8 = alloca ptr, align 8
  %9 = alloca %class.aiVector3t, align 4
  %10 = alloca %class.aiVector3t, align 4
  %11 = alloca %class.aiVector3t, align 4
  %12 = alloca { <2 x float>, float }, align 8
  %13 = alloca { <2 x float>, float }, align 8
  %14 = alloca { <2 x float>, float }, align 8
  store ptr %0, ptr %5, align 8
  store ptr %1, ptr %6, align 8
  store ptr %2, ptr %7, align 8
  store ptr %3, ptr %8, align 8
  %15 = load ptr, ptr %5, align 8
  %16 = getelementptr inbounds nuw %struct.aiMesh, ptr %15, i32 0, i32 3
  %17 = load ptr, ptr %16, align 8
  %18 = load ptr, ptr %5, align 8
  %19 = getelementptr inbounds nuw %struct.aiMesh, ptr %18, i32 0, i32 1
  %20 = load i32, ptr %19, align 4
  %21 = load ptr, ptr %7, align 8
  %22 = load ptr, ptr %8, align 8
  call void @_ZN6Assimp11ArrayBoundsI10aiVector3tIfEEEvPKT_jRS3_S6_(ptr noundef %17, i32 noundef %20, ptr noundef nonnull align 4 dereferenceable(12) %21, ptr noundef nonnull align 4 dereferenceable(12) %22)
  call void @llvm.lifetime.start.p0(i64 12, ptr %9) #18
  %23 = load ptr, ptr %7, align 8
  call void @llvm.lifetime.start.p0(i64 12, ptr %10) #18
  call void @llvm.lifetime.start.p0(i64 12, ptr %11) #18
  %24 = load ptr, ptr %8, align 8
  %25 = load ptr, ptr %7, align 8
  %26 = call { <2 x float>, float } @_ZmiIfE10aiVector3tIT_ERKS2_S4_(ptr noundef nonnull align 4 dereferenceable(12) %24, ptr noundef nonnull align 4 dereferenceable(12) %25)
  store { <2 x float>, float } %26, ptr %12, align 8
  call void @llvm.memcpy.p0.p0.i64(ptr align 4 %11, ptr align 8 %12, i64 12, i1 false)
  %27 = call { <2 x float>, float } @_ZmlIfE10aiVector3tIT_ERKS2_S1_(ptr noundef nonnull align 4 dereferenceable(12) %11, float noundef 5.000000e-01)
  store { <2 x float>, float } %27, ptr %13, align 8
  call void @llvm.memcpy.p0.p0.i64(ptr align 4 %10, ptr align 8 %13, i64 12, i1 false)
  %28 = call { <2 x float>, float } @_ZplIfE10aiVector3tIT_ERKS2_S4_(ptr noundef nonnull align 4 dereferenceable(12) %23, ptr noundef nonnull align 4 dereferenceable(12) %10)
  store { <2 x float>, float } %28, ptr %14, align 8
  call void @llvm.memcpy.p0.p0.i64(ptr align 4 %9, ptr align 8 %14, i64 12, i1 false)
  %29 = load ptr, ptr %6, align 8
  call void @llvm.memcpy.p0.p0.i64(ptr align 4 %29, ptr align 4 %9, i64 12, i1 false)
  call void @llvm.lifetime.end.p0(i64 12, ptr %11) #18
  call void @llvm.lifetime.end.p0(i64 12, ptr %10) #18
  call void @llvm.lifetime.end.p0(i64 12, ptr %9) #18
  ret void
}

; Function Attrs: mustprogress nounwind uwtable
define linkonce_odr hidden void @_ZN10aiVector3tIfEC2Ev(ptr noundef nonnull align 4 dereferenceable(12) %0) unnamed_addr #2 comdat align 2 {
  %2 = alloca ptr, align 8
  store ptr %0, ptr %2, align 8
  %3 = load ptr, ptr %2, align 8
  %4 = getelementptr inbounds nuw %class.aiVector3t, ptr %3, i32 0, i32 0
  store float 0.000000e+00, ptr %4, align 4
  %5 = getelementptr inbounds nuw %class.aiVector3t, ptr %3, i32 0, i32 1
  store float 0.000000e+00, ptr %5, align 4
  %6 = getelementptr inbounds nuw %class.aiVector3t, ptr %3, i32 0, i32 2
  store float 0.000000e+00, ptr %6, align 4
  ret void
}

; Function Attrs: mustprogress uwtable
define hidden void @_ZN6Assimp14FindMeshCenterEP6aiMeshR10aiVector3tIfE(ptr noundef %0, ptr noundef nonnull align 4 dereferenceable(12) %1) #0 {
  %3 = alloca ptr, align 8
  %4 = alloca ptr, align 8
  %5 = alloca %class.aiVector3t, align 4
  %6 = alloca %class.aiVector3t, align 4
  store ptr %0, ptr %3, align 8
  store ptr %1, ptr %4, align 8
  call void @llvm.lifetime.start.p0(i64 12, ptr %5) #18
  call void @_ZN10aiVector3tIfEC2Ev(ptr noundef nonnull align 4 dereferenceable(12) %5) #18
  call void @llvm.lifetime.start.p0(i64 12, ptr %6) #18
  call void @_ZN10aiVector3tIfEC2Ev(ptr noundef nonnull align 4 dereferenceable(12) %6) #18
  %7 = load ptr, ptr %3, align 8
  %8 = load ptr, ptr %4, align 8
  call void @_ZN6Assimp14FindMeshCenterEP6aiMeshR10aiVector3tIfES4_S4_(ptr noundef %7, ptr noundef nonnull align 4 dereferenceable(12) %8, ptr noundef nonnull align 4 dereferenceable(12) %5, ptr noundef nonnull align 4 dereferenceable(12) %6)
  call void @llvm.lifetime.end.p0(i64 12, ptr %6) #18
  call void @llvm.lifetime.end.p0(i64 12, ptr %5) #18
  ret void
}