; Function Attrs: mustprogress nofree norecurse nosync nounwind memory(read, argmem: readwrite, inaccessiblemem: none) uwtable
define hidden void @_ZN6Assimp14FindMeshCenterEP6aiMeshR10aiVector3tIfE(ptr noundef readonly captures(none) %0, ptr noundef nonnull writeonly align 4 captures(none) dereferenceable(12) %1) local_unnamed_addr #3 {
  %3 = getelementptr inbounds nuw i8, ptr %0, i64 16
  %4 = load ptr, ptr %3, align 8
  %5 = getelementptr inbounds nuw i8, ptr %0, i64 4
  %6 = load i32, ptr %5, align 4
  %.not.i.i = icmp eq i32 %6, 0
  br i1 %.not.i.i, label %_ZN6Assimp14FindMeshCenterEP6aiMeshR10aiVector3tIfES4_S4_.exit, label %.lr.ph.preheader.i.i

.lr.ph.preheader.i.i:                             ; preds = %2
  %wide.trip.count.i.i = zext i32 %6 to i64
  br label %.lr.ph.i.i

.lr.ph.i.i:                                       ; preds = %.lr.ph.i.i, %.lr.ph.preheader.i.i
  %.sroa.1123.0 = phi float [ 1.000000e+10, %.lr.ph.preheader.i.i ], [ %18, %.lr.ph.i.i ]
  %.sroa.012.0 = phi <2 x float> [ splat (float 1.000000e+10), %.lr.ph.preheader.i.i ], [ %.sroa.0.4.vec.insert.i.i.i, %.lr.ph.i.i ]
  %.sroa.11.0 = phi float [ -1.000000e+10, %.lr.ph.preheader.i.i ], [ %24, %.lr.ph.i.i ]
  %.sroa.0.0 = phi <2 x float> [ splat (float -1.000000e+10), %.lr.ph.preheader.i.i ], [ %.sroa.0.4.vec.insert.i20.i.i, %.lr.ph.i.i ]
  %indvars.iv.i.i = phi i64 [ 0, %.lr.ph.preheader.i.i ], [ %indvars.iv.next.i.i, %.lr.ph.i.i ]
  %7 = getelementptr inbounds nuw %class.aiVector3t, ptr %4, i64 %indvars.iv.i.i
  %.sroa.012.0.vec.extract = extractelement <2 x float> %.sroa.012.0, i64 0
  %8 = load float, ptr %7, align 4
  %9 = fcmp olt float %.sroa.012.0.vec.extract, %8
  %10 = select i1 %9, float %.sroa.012.0.vec.extract, float %8
  %11 = getelementptr inbounds nuw i8, ptr %7, i64 4
  %.sroa.012.4.vec.extract = extractelement <2 x float> %.sroa.012.0, i64 1
  %12 = load float, ptr %11, align 4
  %13 = fcmp olt float %.sroa.012.4.vec.extract, %12
  %14 = select i1 %13, float %.sroa.012.4.vec.extract, float %12
  %15 = getelementptr inbounds nuw i8, ptr %7, i64 8
  %16 = load float, ptr %15, align 4
  %17 = fcmp olt float %.sroa.1123.0, %16
  %18 = select i1 %17, float %.sroa.1123.0, float %16
  %.sroa.0.0.vec.insert.i.i.i = insertelement <2 x float> poison, float %10, i64 0
  %.sroa.0.4.vec.insert.i.i.i = insertelement <2 x float> %.sroa.0.0.vec.insert.i.i.i, float %14, i64 1
  %.sroa.0.0.vec.extract = extractelement <2 x float> %.sroa.0.0, i64 0
  %19 = fcmp olt float %8, %.sroa.0.0.vec.extract
  %20 = select i1 %19, float %.sroa.0.0.vec.extract, float %8
  %.sroa.0.4.vec.extract = extractelement <2 x float> %.sroa.0.0, i64 1
  %21 = fcmp olt float %12, %.sroa.0.4.vec.extract
  %22 = select i1 %21, float %.sroa.0.4.vec.extract, float %12
  %23 = fcmp olt float %16, %.sroa.11.0
  %24 = select i1 %23, float %.sroa.11.0, float %16
  %.sroa.0.0.vec.insert.i19.i.i = insertelement <2 x float> poison, float %20, i64 0
  %.sroa.0.4.vec.insert.i20.i.i = insertelement <2 x float> %.sroa.0.0.vec.insert.i19.i.i, float %22, i64 1
  %indvars.iv.next.i.i = add nuw nsw i64 %indvars.iv.i.i, 1
  %exitcond.not.i.i = icmp eq i64 %indvars.iv.next.i.i, %wide.trip.count.i.i
  br i1 %exitcond.not.i.i, label %_ZN6Assimp14FindMeshCenterEP6aiMeshR10aiVector3tIfES4_S4_.exit, label %.lr.ph.i.i, !llvm.loop !12

_ZN6Assimp14FindMeshCenterEP6aiMeshR10aiVector3tIfES4_S4_.exit: ; preds = %.lr.ph.i.i, %2
  %25 = phi float [ 1.000000e+10, %2 ], [ %18, %.lr.ph.i.i ]
  %26 = phi float [ -1.000000e+10, %2 ], [ %24, %.lr.ph.i.i ]
  %27 = phi float [ 1.000000e+10, %2 ], [ %14, %.lr.ph.i.i ]
  %28 = phi float [ -1.000000e+10, %2 ], [ %22, %.lr.ph.i.i ]
  %29 = phi float [ 1.000000e+10, %2 ], [ %10, %.lr.ph.i.i ]
  %30 = phi float [ -1.000000e+10, %2 ], [ %20, %.lr.ph.i.i ]
  %31 = fsub float %30, %29
  %32 = fsub float %28, %27
  %33 = fsub float %26, %25
  %34 = fmul float %31, 5.000000e-01
  %35 = fmul float %32, 5.000000e-01
  %36 = fmul float %33, 5.000000e-01
  %37 = fadd float %29, %34
  %38 = fadd float %27, %35
  %39 = fadd float %25, %36
  %.sroa.0.0.vec.insert.i21.i = insertelement <2 x float> poison, float %37, i64 0
  %.sroa.0.4.vec.insert.i22.i = insertelement <2 x float> %.sroa.0.0.vec.insert.i21.i, float %38, i64 1
  store <2 x float> %.sroa.0.4.vec.insert.i22.i, ptr %1, align 4
  %.sroa.4.0..sroa_idx.i = getelementptr inbounds nuw i8, ptr %1, i64 8
  store float %39, ptr %.sroa.4.0..sroa_idx.i, align 4
  ret void
}